(dp0
S'volume'
p1
I50
sS'strumenti'
p2
ccollections
OrderedDict
p3
((lp4
(lp5
S'piano'
p6
ag3
((lp7
(lp8
S'files'
p9
a(lp10
S'/home/pi/Strumenti/piano/0@#-a.wav'
p11
aS'/home/pi/Strumenti/piano/1@#-b.wav'
p12
aS'/home/pi/Strumenti/piano/2@#-c.wav'
p13
aS'/home/pi/Strumenti/piano/3@#-d.wav'
p14
aS'/home/pi/Strumenti/piano/4@#-e.wav'
p15
aS'/home/pi/Strumenti/piano/5@#-f.wav'
p16
aS'/home/pi/Strumenti/piano/6@#-g1.wav'
p17
aS'/home/pi/Strumenti/piano/7@#-g2.wav'
p18
aaa(lp19
S'default'
p20
aI01
aatp21
Rp22
aa(lp23
S'0mix'
p24
ag3
((lp25
(lp26
g9
a(lp27
S'/home/pi/Strumenti/0mix/0TOM1.wav'
p28
aS'/home/pi/Strumenti/0mix/1a.wav'
p29
aS'/home/pi/Strumenti/0mix/2RIMSHT.wav'
p30
aS'/home/pi/Strumenti/0mix/3c.wav'
p31
aS'/home/pi/Strumenti/0mix/4e.wav'
p32
aS'/home/pi/Strumenti/0mix/5TOM2.wav'
p33
aS'/home/pi/Strumenti/0mix/6g2.wav'
p34
aS'/home/pi/Strumenti/0mix/7TOM3.wav'
p35
aaa(lp36
g20
aI00
aatp37
Rp38
aatp39
Rp40
s.